; Function Attrs: nounwind uwtable
define noundef ptr @aag_scan_buffer(ptr noundef %0, i64 noundef %1) local_unnamed_addr #1 {
  %3 = icmp ult i64 %1, 2
  br i1 %3, label %26, label %4

4:                                                ; preds = %2
  %5 = add i64 %1, -2
  %6 = getelementptr inbounds i8, ptr %0, i64 %5
  %7 = load i8, ptr %6, align 1
  %.not = icmp eq i8 %7, 0
  br i1 %.not, label %8, label %26

8:                                                ; preds = %4
  %9 = getelementptr i8, ptr %0, i64 %1
  %10 = getelementptr i8, ptr %9, i64 -1
  %11 = load i8, ptr %10, align 1
  %.not23 = icmp eq i8 %11, 0
  br i1 %.not23, label %12, label %26

12:                                               ; preds = %8
  %13 = tail call noalias noundef dereferenceable_or_null(64) ptr @malloc(i64 noundef 64) #25
  %.not24 = icmp eq ptr %13, null
  br i1 %.not24, label %14, label %15

14:                                               ; preds = %12
  tail call fastcc void @yy_fatal_error(ptr noundef nonnull @.str.5) #26
  unreachable

15:                                               ; preds = %12
  %16 = trunc i64 %5 to i32
  %17 = getelementptr inbounds nuw i8, ptr %13, i64 24
  store i32 %16, ptr %17, align 8
  %18 = getelementptr inbounds nuw i8, ptr %13, i64 8
  store ptr %0, ptr %18, align 8
  %19 = getelementptr inbounds nuw i8, ptr %13, i64 16
  store ptr %0, ptr %19, align 8
  %20 = getelementptr inbounds nuw i8, ptr %13, i64 32
  store i32 0, ptr %20, align 8
  store ptr null, ptr %13, align 8
  %21 = getelementptr inbounds nuw i8, ptr %13, i64 28
  store i32 %16, ptr %21, align 4
  %22 = getelementptr inbounds nuw i8, ptr %13, i64 36
  store i32 0, ptr %22, align 4
  %23 = getelementptr inbounds nuw i8, ptr %13, i64 40
  store i32 1, ptr %23, align 8
  %24 = getelementptr inbounds nuw i8, ptr %13, i64 52
  store i32 0, ptr %24, align 4
  %25 = getelementptr inbounds nuw i8, ptr %13, i64 56
  store i32 0, ptr %25, align 8
  tail call void @aag_switch_to_buffer(ptr noundef nonnull %13)
  br label %26

26:                                               ; preds = %2, %4, %8, %15
  %.0 = phi ptr [ %13, %15 ], [ null, %8 ], [ null, %4 ], [ null, %2 ]
  ret ptr %.0
}